; ModuleID = '49/499.cpp'
source_filename = "49/499.cpp"
target datalayout = "e-m:e-p270:32:32-p271:32:32-p272:64:64-i64:64-f80:128-n8:16:32:64-S128"
target triple = "x86_64-pc-linux-gnu"

%"class.std::ios_base::Init" = type { i8 }
%"class.std::basic_ostream" = type { i32 (...)**, %"class.std::basic_ios" }
%"class.std::basic_ios" = type { %"class.std::ios_base", %"class.std::basic_ostream"*, i8, i8, %"class.std::basic_streambuf"*, %"class.std::ctype"*, %"class.std::num_put"*, %"class.std::num_get"* }
%"class.std::ios_base" = type { i32 (...)**, i64, i64, i32, i32, i32, %"struct.std::ios_base::_Callback_list"*, %"struct.std::ios_base::_Words", [8 x %"struct.std::ios_base::_Words"], i32, %"struct.std::ios_base::_Words"*, %"class.std::locale" }
%"struct.std::ios_base::_Callback_list" = type { %"struct.std::ios_base::_Callback_list"*, void (i32, %"class.std::ios_base"*, i32)*, i32, i32 }
%"struct.std::ios_base::_Words" = type { i8*, i64 }
%"class.std::locale" = type { %"class.std::locale::_Impl"* }
%"class.std::locale::_Impl" = type { i32, %"class.std::locale::facet"**, i64, %"class.std::locale::facet"**, i8** }
%"class.std::locale::facet" = type <{ i32 (...)**, i32, [4 x i8] }>
%"class.std::basic_streambuf" = type { i32 (...)**, i8*, i8*, i8*, i8*, i8*, i8*, %"class.std::locale" }
%"class.std::ctype" = type <{ %"class.std::locale::facet.base", [4 x i8], %struct.__locale_struct*, i8, [7 x i8], i32*, i32*, i16*, i8, [256 x i8], [256 x i8], i8, [6 x i8] }>
%"class.std::locale::facet.base" = type <{ i32 (...)**, i32 }>
%struct.__locale_struct = type { [13 x %struct.__locale_data*], i16*, i32*, i32*, [13 x i8*] }
%struct.__locale_data = type opaque
%"class.std::num_put" = type { %"class.std::locale::facet.base", [4 x i8] }
%"class.std::num_get" = type { %"class.std::locale::facet.base", [4 x i8] }
%"class.std::basic_istream" = type { i32 (...)**, i64, %"class.std::basic_ios" }

@_ZStL8__ioinit = internal global %"class.std::ios_base::Init" zeroinitializer, align 1
@__dso_handle = external hidden global i8
@a = dso_local global [501 x i8] zeroinitializer, align 16
@len = dso_local global i32 0, align 4
@i = dso_local global i32 0, align 4
@t = dso_local global i32 2, align 4
@p = dso_local global i32 0, align 4
@j = dso_local global i32 0, align 4
@n = dso_local global i32 1, align 4
@_ZSt4cout = external dso_local global %"class.std::basic_ostream", align 8
@_ZSt3cin = external dso_local global %"class.std::basic_istream", align 8
@llvm.global_ctors = appending global [1 x { i32, void ()*, i8* }] [{ i32, void ()*, i8* } { i32 65535, void ()* @_GLOBAL__sub_I_499.cpp, i8* null }]

; Function Attrs: noinline uwtable
define internal void @__cxx_global_var_init() #0 section ".text.startup" {
  call void @_ZNSt8ios_base4InitC1Ev(%"class.std::ios_base::Init"* @_ZStL8__ioinit)
  %1 = call i32 @__cxa_atexit(void (i8*)* bitcast (void (%"class.std::ios_base::Init"*)* @_ZNSt8ios_base4InitD1Ev to void (i8*)*), i8* getelementptr inbounds (%"class.std::ios_base::Init", %"class.std::ios_base::Init"* @_ZStL8__ioinit, i32 0, i32 0), i8* @__dso_handle) #3
  ret void
}

declare dso_local void @_ZNSt8ios_base4InitC1Ev(%"class.std::ios_base::Init"*) unnamed_addr #1

; Function Attrs: nounwind
declare dso_local void @_ZNSt8ios_base4InitD1Ev(%"class.std::ios_base::Init"*) unnamed_addr #2

; Function Attrs: nounwind
declare dso_local i32 @__cxa_atexit(void (i8*)*, i8*, i8*) #3

; Function Attrs: noinline uwtable
define dso_local void @_Z4backPc(i8* %0) #0 {
  %2 = alloca i8*, align 8
  store i8* %0, i8** %2, align 8
  %3 = load i8*, i8** %2, align 8
  %4 = call i64 @strlen(i8* %3) #6
  %5 = trunc i64 %4 to i32
  store i32 %5, i32* @len, align 4
  br label %6

6:                                                ; preds = %83, %1
  store i32 0, i32* @j, align 4
  br label %7

7:                                                ; preds = %77, %6
  %8 = load i32, i32* @j, align 4
  %9 = load i32, i32* @len, align 4
  %10 = load i32, i32* @t, align 4
  %11 = sub nsw i32 %9, %10
  %12 = icmp sle i32 %8, %11
  br i1 %12, label %13, label %80

13:                                               ; preds = %7
  %14 = load i32, i32* @j, align 4
  store i32 %14, i32* @i, align 4
  br label %15

15:                                               ; preds = %73, %13
  %16 = load i32, i32* @i, align 4
  %17 = load i32, i32* @j, align 4
  %18 = load i32, i32* @t, align 4
  %19 = add nsw i32 %17, %18
  %20 = icmp slt i32 %16, %19
  br i1 %20, label %21, label %76

21:                                               ; preds = %15
  %22 = load i8*, i8** %2, align 8
  %23 = load i32, i32* @i, align 4
  %24 = sext i32 %23 to i64
  %25 = getelementptr inbounds i8, i8* %22, i64 %24
  %26 = load i8, i8* %25, align 1
  %27 = sext i8 %26 to i32
  %28 = load i8*, i8** %2, align 8
  %29 = load i32, i32* @j, align 4
  %30 = load i32, i32* @t, align 4
  %31 = add nsw i32 %29, %30
  %32 = load i32, i32* @n, align 4
  %33 = sub nsw i32 %31, %32
  %34 = sext i32 %33 to i64
  %35 = getelementptr inbounds i8, i8* %28, i64 %34
  %36 = load i8, i8* %35, align 1
  %37 = sext i8 %36 to i32
  %38 = icmp eq i32 %27, %37
  br i1 %38, label %39, label %69

39:                                               ; preds = %21
  %40 = load i32, i32* @i, align 4
  %41 = add nsw i32 %40, 1
  %42 = load i32, i32* @j, align 4
  %43 = load i32, i32* @t, align 4
  %44 = add nsw i32 %42, %43
  %45 = load i32, i32* @n, align 4
  %46 = sub nsw i32 %44, %45
  %47 = icmp sge i32 %41, %46
  br i1 %47, label %48, label %68

48:                                               ; preds = %39
  %49 = load i32, i32* @j, align 4
  store i32 %49, i32* @i, align 4
  br label %50

50:                                               ; preds = %63, %48
  %51 = load i32, i32* @i, align 4
  %52 = load i32, i32* @j, align 4
  %53 = load i32, i32* @t, align 4
  %54 = add nsw i32 %52, %53
  %55 = icmp slt i32 %51, %54
  br i1 %55, label %56, label %66

56:                                               ; preds = %50
  %57 = load i8*, i8** %2, align 8
  %58 = load i32, i32* @i, align 4
  %59 = sext i32 %58 to i64
  %60 = getelementptr inbounds i8, i8* %57, i64 %59
  %61 = load i8, i8* %60, align 1
  %62 = call dereferenceable(272) %"class.std::basic_ostream"* @_ZStlsISt11char_traitsIcEERSt13basic_ostreamIcT_ES5_c(%"class.std::basic_ostream"* dereferenceable(272) @_ZSt4cout, i8 signext %61)
  br label %63

63:                                               ; preds = %56
  %64 = load i32, i32* @i, align 4
  %65 = add nsw i32 %64, 1
  store i32 %65, i32* @i, align 4
  br label %50

66:                                               ; preds = %50
  %67 = call dereferenceable(272) %"class.std::basic_ostream"* @_ZStlsISt11char_traitsIcEERSt13basic_ostreamIcT_ES5_c(%"class.std::basic_ostream"* dereferenceable(272) @_ZSt4cout, i8 signext 10)
  br label %76

68:                                               ; preds = %39
  br label %70

69:                                               ; preds = %21
  br label %76

70:                                               ; preds = %68
  %71 = load i32, i32* @n, align 4
  %72 = add nsw i32 %71, 1
  store i32 %72, i32* @n, align 4
  br label %73

73:                                               ; preds = %70
  %74 = load i32, i32* @i, align 4
  %75 = add nsw i32 %74, 1
  store i32 %75, i32* @i, align 4
  br label %15

76:                                               ; preds = %69, %66, %15
  store i32 1, i32* @n, align 4
  br label %77

77:                                               ; preds = %76
  %78 = load i32, i32* @j, align 4
  %79 = add nsw i32 %78, 1
  store i32 %79, i32* @j, align 4
  br label %7

80:                                               ; preds = %7
  %81 = load i32, i32* @t, align 4
  %82 = add nsw i32 %81, 1
  store i32 %82, i32* @t, align 4
  br label %83

83:                                               ; preds = %80
  %84 = load i32, i32* @t, align 4
  %85 = load i32, i32* @len, align 4
  %86 = icmp sle i32 %84, %85
  br i1 %86, label %6, label %87

87:                                               ; preds = %83
  ret void
}

; Function Attrs: nounwind readonly
declare dso_local i64 @strlen(i8*) #4

declare dso_local dereferenceable(272) %"class.std::basic_ostream"* @_ZStlsISt11char_traitsIcEERSt13basic_ostreamIcT_ES5_c(%"class.std::basic_ostream"* dereferenceable(272), i8 signext) #1

; Function Attrs: noinline norecurse uwtable
define dso_local i32 @main() #5 {
  %1 = alloca i32, align 4
  store i32 0, i32* %1, align 4
  %2 = call dereferenceable(280) %"class.std::basic_istream"* @_ZStrsIcSt11char_traitsIcEERSt13basic_istreamIT_T0_ES6_PS3_(%"class.std::basic_istream"* dereferenceable(280) @_ZSt3cin, i8* getelementptr inbounds ([501 x i8], [501 x i8]* @a, i64 0, i64 0))
  call void @_Z4backPc(i8* getelementptr inbounds ([501 x i8], [501 x i8]* @a, i64 0, i64 0))
  ret i32 0
}

declare dso_local dereferenceable(280) %"class.std::basic_istream"* @_ZStrsIcSt11char_traitsIcEERSt13basic_istreamIT_T0_ES6_PS3_(%"class.std::basic_istream"* dereferenceable(280), i8*) #1

; Function Attrs: noinline uwtable
define internal void @_GLOBAL__sub_I_499.cpp() #0 section ".text.startup" {
  call void @__cxx_global_var_init()
  ret void
}


!llvm.module.flags = !{!0}
!llvm.ident = !{!1}

!0 = !{i32 1, !"wchar_size", i32 4}
!1 = !{!"clang version 10.0.0-4ubuntu1 "}
